ccopy_reg
_reconstructor
p0
(cgoogle.oauth2.credentials
Credentials
p1
c__builtin__
object
p2
Ntp3
Rp4
(dp5
S'_quota_project_id'
p6
NsS'_token_uri'
p7
Vhttps://oauth2.googleapis.com/token
p8
sS'_client_secret'
p9
VbdT_SFP1zxODOiQF2mSnTm2U
p10
sS'_id_token'
p11
NsS'token'
p12
Vya29.a0AfH6SMDEyRX3wQqUtxJ5CiTWB8QW0hOg2ztzXKPCqzLVRBfNxESfj0F4JIAOgGFecS21y482E1h9Tp8FmDukwGz7dW5tCMY3_D4snI9Rh8R4mUxe627vlrq9ED-YI-8XNi-EaZG7uZ39cmv-dN-uWsgHUQsySF2csKhbxxS7hdc
p13
sS'_refresh_token'
p14
V1//0eIMYS89z3tpGCgYIARAAGA4SNwF-L9Ir54on8YWS26ttuyNhIIotoln8wDFMlyRNVeYsVtpeo9gMSB994vSjF1ruqXTtEBE4xD0
p15
sS'_scopes'
p16
(lp17
S'https://www.googleapis.com/auth/spreadsheets.readonly'
p18
asS'_client_id'
p19
V406720491797-c6od9goe157io7k0ohhdohkj394lcop4.apps.googleusercontent.com
p20
sS'expiry'
p21
cdatetime
datetime
p22
(S'\x07\xe4\x0b\x14\x04\x1e\x01\n\x82\xba'
p23
tp24
Rp25
sb.